target datalayout = "e-m:e-p270:32:32-p271:32:32-p272:64:64-i64:64-i128:128-f80:128-n8:16:32:64-S128"
target triple = "x86_64-pc-linux-gnu"

%struct._zval_struct = type { %union._zend_value, %union.anon, %union.anon.2 }
%union._zend_value = type { i64 }
%union.anon = type { i32 }
%union.anon.2 = type { i32 }
%struct._Bucket = type { %struct._zval_struct, i64, ptr }
%struct._zend_module_entry = type { i16, i32, i8, i8, ptr, ptr, ptr, ptr, ptr, ptr, ptr, ptr, ptr, ptr, i64, ptr, ptr, ptr, ptr, i32, i8, ptr, i32, ptr }

; Function Attrs: nounwind uwtable
define internal i32 @module_name_cmp(ptr noundef %0, ptr noundef %1) #0 {
  %3 = alloca ptr, align 8
  %4 = alloca ptr, align 8
  store ptr %0, ptr %3, align 8, !tbaa !155
  store ptr %1, ptr %4, align 8, !tbaa !155
  %5 = load ptr, ptr %3, align 8, !tbaa !155
  %6 = getelementptr inbounds nuw %struct._Bucket, ptr %5, i32 0, i32 0
  %7 = getelementptr inbounds nuw %struct._zval_struct, ptr %6, i32 0, i32 0
  %8 = load ptr, ptr %7, align 8, !tbaa !11
  %9 = getelementptr inbounds nuw %struct._zend_module_entry, ptr %8, i32 0, i32 6
  %10 = load ptr, ptr %9, align 8, !tbaa !159
  %11 = load ptr, ptr %4, align 8, !tbaa !155
  %12 = getelementptr inbounds nuw %struct._Bucket, ptr %11, i32 0, i32 0
  %13 = getelementptr inbounds nuw %struct._zval_struct, ptr %12, i32 0, i32 0
  %14 = load ptr, ptr %13, align 8, !tbaa !11
  %15 = getelementptr inbounds nuw %struct._zend_module_entry, ptr %14, i32 0, i32 6
  %16 = load ptr, ptr %15, align 8, !tbaa !159
  %17 = call i32 @strcasecmp(ptr noundef %10, ptr noundef %16) #21
  ret i32 %17
}