; Function Attrs: mustprogress nofree nounwind willreturn memory(read) uwtable
define internal i32 @module_name_cmp(ptr noundef readonly captures(none) %0, ptr noundef readonly captures(none) %1) #24 {
  %3 = load ptr, ptr %0, align 8, !tbaa !4
  %4 = getelementptr inbounds nuw i8, ptr %3, i64 32
  %5 = load ptr, ptr %4, align 8, !tbaa !146
  %6 = load ptr, ptr %1, align 8, !tbaa !4
  %7 = getelementptr inbounds nuw i8, ptr %6, i64 32
  %8 = load ptr, ptr %7, align 8, !tbaa !146
  %9 = tail call i32 @strcasecmp(ptr noundef %5, ptr noundef %8) #30
  ret i32 %9
}